; Function Attrs: mustprogress nounwind uwtable
define dso_local void @_ZN10cmDebugger30cmDebuggerPipeConnection_POSIXD1Ev(ptr noundef nonnull align 8 dereferenceable(216) %0) unnamed_addr #2 align 2 personality ptr @__gxx_personality_v0 {
  store ptr getelementptr inbounds ({ [16 x ptr], [11 x ptr], [8 x ptr] }, ptr @_ZTVN10cmDebugger30cmDebuggerPipeConnection_POSIXE, i64 0, i32 0, i64 6), ptr %0, align 8
  %2 = getelementptr inbounds i8, ptr %0, i64 8
  store ptr getelementptr inbounds ({ [16 x ptr], [11 x ptr], [8 x ptr] }, ptr @_ZTVN10cmDebugger30cmDebuggerPipeConnection_POSIXE, i64 0, i32 1, i64 6), ptr %2, align 8
  %3 = getelementptr inbounds i8, ptr %0, i64 16
  store ptr getelementptr inbounds ({ [16 x ptr], [11 x ptr], [8 x ptr] }, ptr @_ZTVN10cmDebugger30cmDebuggerPipeConnection_POSIXE, i64 0, i32 2, i64 2), ptr %3, align 8
  %4 = getelementptr inbounds i8, ptr %0, i64 212
  %5 = load i32, ptr %4, align 4
  %6 = icmp sgt i32 %5, -1
  br i1 %6, label %7, label %16

7:                                                ; preds = %1
  %8 = getelementptr inbounds i8, ptr %0, i64 98
  %char0.i.i = load i8, ptr %8, align 2
  %.not.i.i = icmp eq i8 %char0.i.i, 0
  br i1 %.not.i.i, label %_ZN10cmDebugger30cmDebuggerPipeConnection_POSIX12close_listenEv.exit.i, label %9

9:                                                ; preds = %7
  %10 = tail call i32 @unlink(ptr noundef nonnull %8) #25
  store i8 0, ptr %8, align 2
  br label %_ZN10cmDebugger30cmDebuggerPipeConnection_POSIX12close_listenEv.exit.i

_ZN10cmDebugger30cmDebuggerPipeConnection_POSIX12close_listenEv.exit.i: ; preds = %9, %7
  %11 = getelementptr inbounds i8, ptr %0, i64 208
  %12 = load i32, ptr %11, align 8
  %13 = invoke i32 @close(i32 noundef %12)
          to label %.noexc unwind label %35

.noexc:                                           ; preds = %_ZN10cmDebugger30cmDebuggerPipeConnection_POSIX12close_listenEv.exit.i
  store i32 -1, ptr %11, align 8
  %14 = load i32, ptr %4, align 4
  %15 = invoke i32 @close(i32 noundef %14)
          to label %_ZN10cmDebugger30cmDebuggerPipeConnection_POSIX5closeEv.exit unwind label %35

_ZN10cmDebugger30cmDebuggerPipeConnection_POSIX5closeEv.exit: ; preds = %.noexc
  store i32 -1, ptr %4, align 4
  br label %16

16:                                               ; preds = %_ZN10cmDebugger30cmDebuggerPipeConnection_POSIX5closeEv.exit, %1
  %17 = getelementptr inbounds i8, ptr %0, i64 64
  tail call void @_ZNSt7__cxx1112basic_stringIcSt11char_traitsIcESaIcEED1Ev(ptr noundef nonnull align 8 dereferenceable(32) %17) #25
  %18 = getelementptr inbounds i8, ptr %0, i64 40
  tail call void @_ZNSt7promiseIvED2Ev(ptr noundef nonnull align 8 dereferenceable(24) %18) #25
  %19 = getelementptr inbounds i8, ptr %0, i64 32
  %20 = load ptr, ptr %19, align 8
  %.not.i.i.i.i.i = icmp eq ptr %20, null
  br i1 %.not.i.i.i.i.i, label %_ZN10cmDebugger30cmDebuggerPipeConnection_POSIXD2Ev.exit, label %21

21:                                               ; preds = %16
  %22 = getelementptr inbounds i8, ptr %20, i64 12
  %23 = load i8, ptr @__libc_single_threaded, align 1
  %.not.i.i.i.i.i.i = icmp eq i8 %23, 0
  br i1 %.not.i.i.i.i.i.i, label %27, label %24

24:                                               ; preds = %21
  %25 = load i32, ptr %22, align 4
  %26 = add nsw i32 %25, -1
  store i32 %26, ptr %22, align 4
  br label %29

27:                                               ; preds = %21
  %28 = atomicrmw volatile add ptr %22, i32 -1 acq_rel, align 4
  br label %29

29:                                               ; preds = %27, %24
  %.0.i.i.i.i.i.i = phi i32 [ %25, %24 ], [ %28, %27 ]
  %30 = icmp eq i32 %.0.i.i.i.i.i.i, 1
  br i1 %30, label %31, label %_ZN10cmDebugger30cmDebuggerPipeConnection_POSIXD2Ev.exit

31:                                               ; preds = %29
  %32 = load ptr, ptr %20, align 8
  %33 = getelementptr inbounds i8, ptr %32, i64 24
  %34 = load ptr, ptr %33, align 8
  tail call void %34(ptr noundef nonnull align 8 dereferenceable(16) %20) #25
  br label %_ZN10cmDebugger30cmDebuggerPipeConnection_POSIXD2Ev.exit

35:                                               ; preds = %.noexc, %_ZN10cmDebugger30cmDebuggerPipeConnection_POSIX12close_listenEv.exit.i
  %36 = landingpad { ptr, i32 }
          catch ptr null
  %37 = extractvalue { ptr, i32 } %36, 0
  tail call void @__clang_call_terminate(ptr %37) #26
  unreachable

_ZN10cmDebugger30cmDebuggerPipeConnection_POSIXD2Ev.exit: ; preds = %16, %29, %31
  ret void
}